(dp0
S'H1'
p1
(lp2
F0.7178648524251562
aF0.24264081206735347
asS'take0'
p3
(lp4
F0.42334338957794393
aF0.3426408120673535
asS'take10'
p5
(lp6
F0.4833433895779439
aF0.46264081206735347
asS'take11'
p7
(lp8
F0.5433433895779439
aF0.46264081206735347
asS'take12'
p9
(lp10
F0.6033433895779439
aF0.46264081206735347
asS'take8'
p11
(lp12
F0.6033433895779439
aF0.40264081206735347
asS'C0'
p13
(lp14
F0.7669517628996916
aF0.004784862900929679
asS'take9'
p15
(lp16
F0.42334338957794393
aF0.46264081206735347
asS'G7'
p17
(lp18
F0.42334338957794393
aF0.1950696222340687
asS'G6'
p19
(lp20
F0.47243030005247927
aF0.1950696222340687
asS'G5'
p21
(lp22
F0.5215172105270146
aF0.1950696222340687
asS'G4'
p23
(lp24
F0.57060412100155
aF0.1950696222340687
asS'zoffset'
p25
F-0.2566477549938345
sS'G2'
p26
(lp27
F0.6687779419506208
aF0.1950696222340687
asS'G1'
p28
(lp29
F0.7178648524251562
aF0.1950696222340687
asS'G0'
p30
(lp31
F0.7669517628996916
aF0.1950696222340687
asS'H0'
p32
(lp33
F0.7669517628996916
aF0.24264081206735347
asS'take5'
p34
(lp35
F0.42334338957794393
aF0.40264081206735347
asS'E2'
p36
(lp37
F0.6687779419506208
aF0.09992724256749919
asS'A1'
p38
(lp39
F0.7178648524251562
aF-0.09035751676563983
asS'A0'
p40
(lp41
F0.7669517628996916
aF-0.09035751676563983
asS'A3'
p42
(lp43
F0.6196910314760854
aF-0.09035751676563983
asS'A2'
p44
(lp45
F0.6687779419506208
aF-0.09035751676563983
asS'A5'
p46
(lp47
F0.5215172105270146
aF-0.09035751676563983
asS'A4'
p48
(lp49
F0.57060412100155
aF-0.09035751676563983
asS'A7'
p50
(lp51
F0.42334338957794393
aF-0.09035751676563983
asS'A6'
p52
(lp53
F0.47243030005247927
aF-0.09035751676563983
asS'C3'
p54
(lp55
F0.6196910314760854
aF0.004784862900929679
asS'C2'
p56
(lp57
F0.6687779419506208
aF0.004784862900929679
asS'C1'
p58
(lp59
F0.7178648524251562
aF0.004784862900929679
asS'E6'
p60
(lp61
F0.47243030005247927
aF0.09992724256749919
asS'E1'
p62
(lp63
F0.7178648524251562
aF0.09992724256749919
asS'C6'
p64
(lp65
F0.47243030005247927
aF0.004784862900929679
asS'C5'
p66
(lp67
F0.5215172105270146
aF0.004784862900929679
asS'C4'
p68
(lp69
F0.57060412100155
aF0.004784862900929679
asS'E0'
p70
(lp71
F0.7669517628996916
aF0.09992724256749919
asS'take7'
p72
(lp73
F0.5433433895779439
aF0.40264081206735347
asS'take2'
p74
(lp75
F0.5433433895779439
aF0.3426408120673535
asS'B3'
p76
(lp77
F0.6196910314760854
aF-0.042786326932355075
asS'take4'
p78
(lp79
F0.6633433895779439
aF0.3426408120673535
asS'E3'
p80
(lp81
F0.6196910314760854
aF0.09992724256749919
asS'E5'
p82
(lp83
F0.5215172105270146
aF0.09992724256749919
asS'campos'
p84
(lp85
F1.0669517628996916
aF0.3516424832343602
aF0.2053522450061655
asS'E4'
p86
(lp87
F0.57060412100155
aF0.09992724256749919
asS'G3'
p88
(lp89
F0.6196910314760854
aF0.1950696222340687
asS'E7'
p90
(lp91
F0.42334338957794393
aF0.09992724256749919
asS'take3'
p92
(lp93
F0.6033433895779439
aF0.3426408120673535
asS'F0'
p94
(lp95
F0.7669517628996916
aF0.14749843240078395
asS'F1'
p96
(lp97
F0.7178648524251562
aF0.14749843240078395
asS'F2'
p98
(lp99
F0.6687779419506208
aF0.14749843240078395
asS'F3'
p100
(lp101
F0.6196910314760854
aF0.14749843240078395
asS'F4'
p102
(lp103
F0.57060412100155
aF0.14749843240078395
asS'F5'
p104
(lp105
F0.5215172105270146
aF0.14749843240078395
asS'F6'
p106
(lp107
F0.47243030005247927
aF0.14749843240078395
asS'take6'
p108
(lp109
F0.4833433895779439
aF0.40264081206735347
asS'H2'
p110
(lp111
F0.6687779419506208
aF0.24264081206735347
asS'C7'
p112
(lp113
F0.42334338957794393
aF0.004784862900929679
asS'F7'
p114
(lp115
F0.42334338957794393
aF0.14749843240078395
asS'take1'
p116
(lp117
F0.4833433895779439
aF0.3426408120673535
asS'H6'
p118
(lp119
F0.47243030005247927
aF0.24264081206735347
asS'H7'
p120
(lp121
F0.42334338957794393
aF0.24264081206735347
asS'H4'
p122
(lp123
F0.57060412100155
aF0.24264081206735347
asS'H5'
p124
(lp125
F0.5215172105270146
aF0.24264081206735347
asS'B4'
p126
(lp127
F0.57060412100155
aF-0.042786326932355075
asS'B5'
p128
(lp129
F0.5215172105270146
aF-0.042786326932355075
asS'B6'
p130
(lp131
F0.47243030005247927
aF-0.042786326932355075
asS'B7'
p132
(lp133
F0.42334338957794393
aF-0.042786326932355075
asS'B0'
p134
(lp135
F0.7669517628996916
aF-0.042786326932355075
asS'B1'
p136
(lp137
F0.7178648524251562
aF-0.042786326932355075
asS'B2'
p138
(lp139
F0.6687779419506208
aF-0.042786326932355075
asS'H3'
p140
(lp141
F0.6196910314760854
aF0.24264081206735347
asS'D6'
p142
(lp143
F0.47243030005247927
aF0.05235605273421443
asS'D7'
p144
(lp145
F0.42334338957794393
aF0.05235605273421443
asS'D4'
p146
(lp147
F0.57060412100155
aF0.05235605273421443
asS'D5'
p148
(lp149
F0.5215172105270146
aF0.05235605273421443
asS'D2'
p150
(lp151
F0.6687779419506208
aF0.05235605273421443
asS'D3'
p152
(lp153
F0.6196910314760854
aF0.05235605273421443
asS'D0'
p154
(lp155
F0.7669517628996916
aF0.05235605273421443
asS'D1'
p156
(lp157
F0.7178648524251562
aF0.05235605273421443
as.